target datalayout = "e-m:e-p270:32:32-p271:32:32-p272:64:64-i64:64-i128:128-f80:128-n8:16:32:64-S128"
target triple = "x86_64-unknown-linux-gnu"

%"class.icu_75::RuleCharacterIterator" = type <{ ptr, ptr, ptr, ptr, i32, [4 x i8] }>
%"class.icu_75::ParsePosition" = type { %"class.icu_75::UObject", i32, i32 }
%"class.icu_75::UObject" = type { ptr }
%"struct.icu_75::RuleCharacterIterator::Pos" = type { ptr, i32, i32 }

; Function Attrs: mustprogress nounwind uwtable
define linkonce_odr noundef i32 @_ZNK6icu_7513ParsePosition8getIndexEv(ptr noundef nonnull align 8 dereferenceable(16) %this) #0 comdat align 2 {
entry:
  %this.addr = alloca ptr, align 8
  store ptr %this, ptr %this.addr, align 8
  %this1 = load ptr, ptr %this.addr, align 8
  %index = getelementptr inbounds %"class.icu_75::ParsePosition", ptr %this1, i32 0, i32 1
  %0 = load i32, ptr %index, align 8
  ret i32 %0
}

; Function Attrs: mustprogress uwtable
define void @_ZNK6icu_7521RuleCharacterIterator6getPosERNS0_3PosE(ptr noundef nonnull align 8 dereferenceable(36) %this, ptr noundef nonnull align 8 dereferenceable(16) %p) #1 align 2 {
entry:
  %this.addr = alloca ptr, align 8
  %p.addr = alloca ptr, align 8
  store ptr %this, ptr %this.addr, align 8
  store ptr %p, ptr %p.addr, align 8
  %this1 = load ptr, ptr %this.addr, align 8
  %buf = getelementptr inbounds %"class.icu_75::RuleCharacterIterator", ptr %this1, i32 0, i32 3
  %0 = load ptr, ptr %buf, align 8
  %1 = load ptr, ptr %p.addr, align 8
  %buf2 = getelementptr inbounds %"struct.icu_75::RuleCharacterIterator::Pos", ptr %1, i32 0, i32 0
  store ptr %0, ptr %buf2, align 8
  %pos = getelementptr inbounds %"class.icu_75::RuleCharacterIterator", ptr %this1, i32 0, i32 1
  %2 = load ptr, ptr %pos, align 8
  %call = call noundef i32 @_ZNK6icu_7513ParsePosition8getIndexEv(ptr noundef nonnull align 8 dereferenceable(16) %2)
  %3 = load ptr, ptr %p.addr, align 8
  %pos3 = getelementptr inbounds %"struct.icu_75::RuleCharacterIterator::Pos", ptr %3, i32 0, i32 1
  store i32 %call, ptr %pos3, align 8
  %bufPos = getelementptr inbounds %"class.icu_75::RuleCharacterIterator", ptr %this1, i32 0, i32 4
  %4 = load i32, ptr %bufPos, align 8
  %5 = load ptr, ptr %p.addr, align 8
  %bufPos4 = getelementptr inbounds %"struct.icu_75::RuleCharacterIterator::Pos", ptr %5, i32 0, i32 2
  store i32 %4, ptr %bufPos4, align 4
  ret void
}