; Function Attrs: mustprogress nofree norecurse nosync nounwind willreturn memory(read, argmem: readwrite, inaccessiblemem: none) uwtable
define void @_ZNK6icu_7521RuleCharacterIterator6getPosERNS0_3PosE(ptr nocapture noundef nonnull readonly align 8 dereferenceable(36) %this, ptr nocapture noundef nonnull writeonly align 8 dereferenceable(16) %p) local_unnamed_addr #6 align 2 {
entry:
  %buf = getelementptr inbounds i8, ptr %this, i64 24
  %0 = load ptr, ptr %buf, align 8
  store ptr %0, ptr %p, align 8
  %pos = getelementptr inbounds i8, ptr %this, i64 8
  %1 = load ptr, ptr %pos, align 8
  %index.i = getelementptr inbounds i8, ptr %1, i64 8
  %2 = load i32, ptr %index.i, align 8
  %pos3 = getelementptr inbounds i8, ptr %p, i64 8
  store i32 %2, ptr %pos3, align 8
  %bufPos = getelementptr inbounds i8, ptr %this, i64 32
  %3 = load i32, ptr %bufPos, align 8
  %bufPos4 = getelementptr inbounds i8, ptr %p, i64 12
  store i32 %3, ptr %bufPos4, align 4
  ret void
}